target datalayout = "e-m:e-p270:32:32-p271:32:32-p272:64:64-i64:64-i128:128-f80:128-n8:16:32:64-S128"
target triple = "x86_64-pc-linux-gnu"

%struct.pointf_s = type { double, double }

@stderr = external global ptr, align 8
@.str = private unnamed_addr constant [45 x i8] c"%s:%d: claimed unreachable code was reached\0A\00", align 1
@.str.1 = private unnamed_addr constant [113 x i8] c"generated/home/dtcxzyw/WorkSpace/Projects/compilers/llvm-opt-benchmark/bench/graphviz/graphviz/lib/common/geom.c\00", align 1

; Function Attrs: nounwind uwtable
define { double, double } @ccwrotatepf(double %0, double %1, i32 noundef %2) #0 {
  %4 = alloca %struct.pointf_s, align 8
  %5 = alloca %struct.pointf_s, align 8
  %6 = alloca i32, align 4
  %7 = alloca double, align 8
  %8 = alloca double, align 8
  %9 = getelementptr inbounds nuw { double, double }, ptr %5, i32 0, i32 0
  store double %0, ptr %9, align 8
  %10 = getelementptr inbounds nuw { double, double }, ptr %5, i32 0, i32 1
  store double %1, ptr %10, align 8
  store i32 %2, ptr %6, align 4, !tbaa !22
  call void @llvm.lifetime.start.p0(i64 8, ptr %7) #7
  %11 = getelementptr inbounds nuw %struct.pointf_s, ptr %5, i32 0, i32 0
  %12 = load double, ptr %11, align 8, !tbaa !9
  store double %12, ptr %7, align 8, !tbaa !18
  call void @llvm.lifetime.start.p0(i64 8, ptr %8) #7
  %13 = getelementptr inbounds nuw %struct.pointf_s, ptr %5, i32 0, i32 1
  %14 = load double, ptr %13, align 8, !tbaa !12
  store double %14, ptr %8, align 8, !tbaa !18
  %15 = load i32, ptr %6, align 4, !tbaa !22
  switch i32 %15, label %33 [
    i32 0, label %39
    i32 90, label %16
    i32 180, label %22
    i32 270, label %28
  ]

16:                                               ; preds = %3
  %17 = load double, ptr %8, align 8, !tbaa !18
  %18 = fneg double %17
  %19 = getelementptr inbounds nuw %struct.pointf_s, ptr %5, i32 0, i32 0
  store double %18, ptr %19, align 8, !tbaa !9
  %20 = load double, ptr %7, align 8, !tbaa !18
  %21 = getelementptr inbounds nuw %struct.pointf_s, ptr %5, i32 0, i32 1
  store double %20, ptr %21, align 8, !tbaa !12
  br label %39

22:                                               ; preds = %3
  %23 = load double, ptr %7, align 8, !tbaa !18
  %24 = getelementptr inbounds nuw %struct.pointf_s, ptr %5, i32 0, i32 0
  store double %23, ptr %24, align 8, !tbaa !9
  %25 = load double, ptr %8, align 8, !tbaa !18
  %26 = fneg double %25
  %27 = getelementptr inbounds nuw %struct.pointf_s, ptr %5, i32 0, i32 1
  store double %26, ptr %27, align 8, !tbaa !12
  br label %39

28:                                               ; preds = %3
  %29 = load double, ptr %8, align 8, !tbaa !18
  %30 = getelementptr inbounds nuw %struct.pointf_s, ptr %5, i32 0, i32 0
  store double %29, ptr %30, align 8, !tbaa !9
  %31 = load double, ptr %7, align 8, !tbaa !18
  %32 = getelementptr inbounds nuw %struct.pointf_s, ptr %5, i32 0, i32 1
  store double %31, ptr %32, align 8, !tbaa !12
  br label %39

33:                                               ; preds = %3
  br label %34

34:                                               ; preds = %33
  %35 = load ptr, ptr @stderr, align 8, !tbaa !24
  %36 = call i32 (ptr, ptr, ...) @fprintf(ptr noundef %35, ptr noundef @.str, ptr noundef @.str.1, i32 noundef 192) #7
  call void @abort() #8
  unreachable

37:                                               ; No predecessors!
  br label %38

38:                                               ; preds = %37
  br label %39

39:                                               ; preds = %38, %28, %22, %16, %3
  call void @llvm.memcpy.p0.p0.i64(ptr align 8 %4, ptr align 8 %5, i64 16, i1 false), !tbaa.struct !26
  call void @llvm.lifetime.end.p0(i64 8, ptr %8) #7
  call void @llvm.lifetime.end.p0(i64 8, ptr %7) #7
  %40 = load { double, double }, ptr %4, align 8
  ret { double, double } %40
}