; Function Attrs: nofree nounwind uwtable
define { double, double } @ccwrotatepf(double %0, double %1, i32 noundef %2) local_unnamed_addr #3 {
  switch i32 %2, label %9 [
    i32 0, label %12
    i32 90, label %4
    i32 180, label %6
    i32 270, label %8
  ]

4:                                                ; preds = %3
  %5 = fneg double %1
  br label %12

6:                                                ; preds = %3
  %7 = fneg double %1
  br label %12

8:                                                ; preds = %3
  br label %12

9:                                                ; preds = %3
  %10 = load ptr, ptr @stderr, align 8, !tbaa !12
  %11 = tail call i32 (ptr, ptr, ...) @fprintf(ptr noundef %10, ptr noundef nonnull @.str, ptr noundef nonnull @.str.1, i32 noundef 192) #8
  tail call void @abort() #9
  unreachable

12:                                               ; preds = %8, %6, %4, %3
  %.sroa.0.0 = phi double [ %1, %8 ], [ %0, %6 ], [ %5, %4 ], [ %0, %3 ]
  %.sroa.6.0 = phi double [ %0, %8 ], [ %7, %6 ], [ %0, %4 ], [ %1, %3 ]
  %.fca.0.insert = insertvalue { double, double } poison, double %.sroa.0.0, 0
  %.fca.1.insert = insertvalue { double, double } %.fca.0.insert, double %.sroa.6.0, 1
  ret { double, double } %.fca.1.insert
}